; Function Attrs: mustprogress nounwind uwtable
define dso_local void @_ZN27cmExtraEclipseCDT4GeneratorC2Ev(ptr noundef nonnull align 8 dereferenceable(216) %0) unnamed_addr #3 align 2 personality ptr @__gxx_personality_v0 {
  store ptr getelementptr inbounds ({ [8 x ptr] }, ptr @_ZTV34cmExternalMakefileProjectGenerator, i64 0, i32 0, i64 2), ptr %0, align 8
  %2 = getelementptr inbounds i8, ptr %0, i64 8
  %3 = getelementptr inbounds i8, ptr %0, i64 40
  tail call void @llvm.memset.p0.i64(ptr noundef nonnull align 8 dereferenceable(32) %2, i8 0, i64 32, i1 false)
  tail call void @_ZNSt7__cxx1112basic_stringIcSt11char_traitsIcESaIcEEC1Ev(ptr noundef nonnull align 8 dereferenceable(32) %3) #19
  store ptr getelementptr inbounds ({ [8 x ptr] }, ptr @_ZTV27cmExtraEclipseCDT4Generator, i64 0, i32 0, i64 2), ptr %0, align 8
  %4 = getelementptr inbounds i8, ptr %0, i64 72
  tail call void @llvm.memset.p0.i64(ptr noundef nonnull align 8 dereferenceable(24) %4, i8 0, i64 24, i1 false)
  %5 = getelementptr inbounds i8, ptr %0, i64 104
  store i32 0, ptr %5, align 8
  %6 = getelementptr inbounds i8, ptr %0, i64 112
  store ptr null, ptr %6, align 8
  %7 = getelementptr inbounds i8, ptr %0, i64 120
  store ptr %5, ptr %7, align 8
  %8 = getelementptr inbounds i8, ptr %0, i64 128
  store ptr %5, ptr %8, align 8
  %9 = getelementptr inbounds i8, ptr %0, i64 136
  store i64 0, ptr %9, align 8
  %10 = getelementptr inbounds i8, ptr %0, i64 144
  tail call void @_ZNSt7__cxx1112basic_stringIcSt11char_traitsIcESaIcEEC1Ev(ptr noundef nonnull align 8 dereferenceable(32) %10) #19
  %11 = getelementptr inbounds i8, ptr %0, i64 176
  tail call void @_ZNSt7__cxx1112basic_stringIcSt11char_traitsIcESaIcEEC1Ev(ptr noundef nonnull align 8 dereferenceable(32) %11) #19
  %12 = getelementptr inbounds i8, ptr %0, i64 208
  store i8 0, ptr %12, align 8
  %13 = getelementptr inbounds i8, ptr %0, i64 209
  store i8 0, ptr %13, align 1
  %14 = getelementptr inbounds i8, ptr %0, i64 210
  %15 = getelementptr inbounds i8, ptr %0, i64 214
  store i32 16843009, ptr %14, align 2
  store i8 0, ptr %15, align 2
  %16 = getelementptr inbounds i8, ptr %0, i64 215
  store i8 0, ptr %16, align 1
  ret void
}